; ModuleID = 'source-C-CXX/12/917.c'
source_filename = "source-C-CXX/12/917.c"
target datalayout = "e-m:e-p270:32:32-p271:32:32-p272:64:64-i64:64-f80:128-n8:16:32:64-S128"
target triple = "x86_64-pc-linux-gnu"

@.str = private unnamed_addr constant [3 x i8] c"%d\00", align 1
@.str.1 = private unnamed_addr constant [4 x i8] c" %d\00", align 1

; Function Attrs: nofree nounwind sspstrong uwtable
define dso_local void @main() local_unnamed_addr #0 {
  %1 = alloca i32, align 4
  %2 = alloca [20000 x i32], align 16
  %3 = bitcast i32* %1 to i8*
  call void @llvm.lifetime.start.p0i8(i64 4, i8* nonnull %3) #5
  %4 = bitcast [20000 x i32]* %2 to i8*
  call void @llvm.lifetime.start.p0i8(i64 80000, i8* nonnull %4) #5
  %5 = call i32 (i8*, ...) @__isoc99_scanf(i8* getelementptr inbounds ([3 x i8], [3 x i8]* @.str, i64 0, i64 0), i32* nonnull %1)
  %6 = load i32, i32* %1, align 4, !tbaa !5
  %7 = icmp sgt i32 %6, 0
  br i1 %7, label %8, label %19

8:                                                ; preds = %0, %8
  %9 = phi i64 [ %12, %8 ], [ 0, %0 ]
  %10 = getelementptr inbounds [20000 x i32], [20000 x i32]* %2, i64 0, i64 %9
  %11 = call i32 (i8*, ...) @__isoc99_scanf(i8* getelementptr inbounds ([3 x i8], [3 x i8]* @.str, i64 0, i64 0), i32* nonnull %10)
  %12 = add nuw nsw i64 %9, 1
  %13 = load i32, i32* %1, align 4, !tbaa !5
  %14 = sext i32 %13 to i64
  %15 = icmp slt i64 %12, %14
  br i1 %15, label %8, label %16, !llvm.loop !9

16:                                               ; preds = %8
  %17 = getelementptr inbounds [20000 x i32], [20000 x i32]* %2, i64 0, i64 0
  %18 = load i32, i32* %17, align 16, !tbaa !5
  br label %19

19:                                               ; preds = %16, %0
  %20 = phi i32 [ %18, %16 ], [ undef, %0 ]
  %21 = call i32 (i8*, ...) @printf(i8* nonnull dereferenceable(1) getelementptr inbounds ([3 x i8], [3 x i8]* @.str, i64 0, i64 0), i32 %20)
  %22 = load i32, i32* %1, align 4, !tbaa !5
  %23 = icmp sgt i32 %22, 1
  br i1 %23, label %24, label %96

24:                                               ; preds = %19, %90
  %25 = phi i64 [ %95, %90 ], [ 0, %19 ]
  %26 = phi i32 [ %91, %90 ], [ %22, %19 ]
  %27 = phi i64 [ %92, %90 ], [ 1, %19 ]
  %28 = add i64 %25, 1
  %29 = getelementptr inbounds [20000 x i32], [20000 x i32]* %2, i64 0, i64 %27
  %30 = load i32, i32* %29, align 4, !tbaa !5
  %31 = icmp ult i64 %28, 8
  %32 = icmp ugt i64 %25, 4294967295
  %33 = or i1 %31, %32
  br i1 %33, label %69, label %34

34:                                               ; preds = %24
  %35 = and i64 %28, -8
  %36 = sub i64 %27, %35
  %37 = insertelement <4 x i32> poison, i32 %30, i32 0
  %38 = shufflevector <4 x i32> %37, <4 x i32> poison, <4 x i32> zeroinitializer
  %39 = insertelement <4 x i32> poison, i32 %30, i32 0
  %40 = shufflevector <4 x i32> %39, <4 x i32> poison, <4 x i32> zeroinitializer
  br label %41

41:                                               ; preds = %41, %34
  %42 = phi i64 [ 0, %34 ], [ %63, %41 ]
  %43 = phi <4 x i32> [ zeroinitializer, %34 ], [ %61, %41 ]
  %44 = phi <4 x i32> [ zeroinitializer, %34 ], [ %62, %41 ]
  %45 = sub i64 %27, %42
  %46 = add i64 %45, 4294967295
  %47 = and i64 %46, 4294967295
  %48 = getelementptr inbounds [20000 x i32], [20000 x i32]* %2, i64 0, i64 %47
  %49 = getelementptr inbounds i32, i32* %48, i64 -3
  %50 = bitcast i32* %49 to <4 x i32>*
  %51 = load <4 x i32>, <4 x i32>* %50, align 4, !tbaa !5
  %52 = shufflevector <4 x i32> %51, <4 x i32> poison, <4 x i32> <i32 3, i32 2, i32 1, i32 0>
  %53 = getelementptr inbounds i32, i32* %48, i64 -7
  %54 = bitcast i32* %53 to <4 x i32>*
  %55 = load <4 x i32>, <4 x i32>* %54, align 4, !tbaa !5
  %56 = shufflevector <4 x i32> %55, <4 x i32> poison, <4 x i32> <i32 3, i32 2, i32 1, i32 0>
  %57 = icmp eq <4 x i32> %38, %52
  %58 = icmp eq <4 x i32> %40, %56
  %59 = zext <4 x i1> %57 to <4 x i32>
  %60 = zext <4 x i1> %58 to <4 x i32>
  %61 = add <4 x i32> %43, %59
  %62 = add <4 x i32> %44, %60
  %63 = add nuw i64 %42, 8
  %64 = icmp eq i64 %63, %35
  br i1 %64, label %65, label %41, !llvm.loop !11

65:                                               ; preds = %41
  %66 = add <4 x i32> %62, %61
  %67 = call i32 @llvm.vector.reduce.add.v4i32(<4 x i32> %66)
  %68 = icmp eq i64 %28, %35
  br i1 %68, label %84, label %69

69:                                               ; preds = %24, %65
  %70 = phi i64 [ %27, %24 ], [ %36, %65 ]
  %71 = phi i32 [ 0, %24 ], [ %67, %65 ]
  br label %72

72:                                               ; preds = %69, %72
  %73 = phi i64 [ %83, %72 ], [ %70, %69 ]
  %74 = phi i32 [ %81, %72 ], [ %71, %69 ]
  %75 = add i64 %73, 4294967295
  %76 = and i64 %75, 4294967295
  %77 = getelementptr inbounds [20000 x i32], [20000 x i32]* %2, i64 0, i64 %76
  %78 = load i32, i32* %77, align 4, !tbaa !5
  %79 = icmp eq i32 %30, %78
  %80 = zext i1 %79 to i32
  %81 = add nuw nsw i32 %74, %80
  %82 = icmp sgt i64 %73, 1
  %83 = add nsw i64 %73, -1
  br i1 %82, label %72, label %84, !llvm.loop !13

84:                                               ; preds = %72, %65
  %85 = phi i32 [ %67, %65 ], [ %81, %72 ]
  %86 = icmp eq i32 %85, 0
  br i1 %86, label %87, label %90

87:                                               ; preds = %84
  %88 = call i32 (i8*, ...) @printf(i8* nonnull dereferenceable(1) getelementptr inbounds ([4 x i8], [4 x i8]* @.str.1, i64 0, i64 0), i32 %30)
  %89 = load i32, i32* %1, align 4, !tbaa !5
  br label %90

90:                                               ; preds = %87, %84
  %91 = phi i32 [ %89, %87 ], [ %26, %84 ]
  %92 = add nuw nsw i64 %27, 1
  %93 = sext i32 %91 to i64
  %94 = icmp slt i64 %92, %93
  %95 = add i64 %25, 1
  br i1 %94, label %24, label %96, !llvm.loop !14

96:                                               ; preds = %90, %19
  %97 = call i32 @putchar(i32 10)
  call void @llvm.lifetime.end.p0i8(i64 80000, i8* nonnull %4) #5
  call void @llvm.lifetime.end.p0i8(i64 4, i8* nonnull %3) #5
  ret void
}

; Function Attrs: argmemonly mustprogress nofree nosync nounwind willreturn
declare void @llvm.lifetime.start.p0i8(i64 immarg, i8* nocapture) #1

; Function Attrs: nofree nounwind
declare noundef i32 @__isoc99_scanf(i8* nocapture noundef readonly, ...) local_unnamed_addr #2

; Function Attrs: nofree nounwind
declare noundef i32 @printf(i8* nocapture noundef readonly, ...) local_unnamed_addr #2

; Function Attrs: argmemonly mustprogress nofree nosync nounwind willreturn
declare void @llvm.lifetime.end.p0i8(i64 immarg, i8* nocapture) #1

; Function Attrs: nofree nounwind
declare noundef i32 @putchar(i32 noundef) local_unnamed_addr #3

; Function Attrs: nofree nosync nounwind readnone willreturn
declare i32 @llvm.vector.reduce.add.v4i32(<4 x i32>) #4


!llvm.module.flags = !{!0, !1, !2, !3}
!llvm.ident = !{!4}

!0 = !{i32 1, !"wchar_size", i32 4}
!1 = !{i32 7, !"PIC Level", i32 2}
!2 = !{i32 7, !"PIE Level", i32 2}
!3 = !{i32 7, !"uwtable", i32 1}
!4 = !{!"clang version 13.0.0"}
!5 = !{!6, !6, i64 0}
!6 = !{!"int", !7, i64 0}
!7 = !{!"omnipotent char", !8, i64 0}
!8 = !{!"Simple C/C++ TBAA"}
!9 = distinct !{!9, !10}
!10 = !{!"llvm.loop.mustprogress"}
!11 = distinct !{!11, !10, !12}
!12 = !{!"llvm.loop.isvectorized", i32 1}
!13 = distinct !{!13, !10, !12}
!14 = distinct !{!14, !10}
